target datalayout = "e-m:e-p270:32:32-p271:32:32-p272:64:64-i64:64-i128:128-f80:128-n8:16:32:64-S128"
target triple = "x86_64-pc-linux-gnu"

@.str.14 = private unnamed_addr constant [29 x i8] c"../openssl/test/radix/main.c\00", align 1
@.str.15 = private unnamed_addr constant [28 x i8] c"Error parsing test options\0A\00", align 1
@cert_file = internal global ptr null, align 8
@.str.16 = private unnamed_addr constant [26 x i8] c"test/certs/servercert.pem\00", align 1
@key_file = internal global ptr null, align 8
@.str.17 = private unnamed_addr constant [25 x i8] c"test/certs/serverkey.pem\00", align 1
@.str.18 = private unnamed_addr constant [12 x i8] c"test_script\00", align 1

; Function Attrs: nounwind uwtable
define dso_local i32 @setup_tests() #0 {
  %1 = alloca i32, align 4
  %2 = call i32 @test_skip_common_options()
  %3 = icmp ne i32 %2, 0
  br i1 %3, label %5, label %4

4:                                                ; preds = %0
  call void (ptr, i32, ptr, ...) @test_error(ptr noundef @.str.14, i32 noundef 47, ptr noundef @.str.15)
  store i32 0, ptr %1, align 4
  br label %16

5:                                                ; preds = %0
  %6 = call ptr @test_get_argument(i64 noundef 0)
  store ptr %6, ptr @cert_file, align 8, !tbaa !4
  %7 = load ptr, ptr @cert_file, align 8, !tbaa !4
  %8 = icmp eq ptr %7, null
  br i1 %8, label %9, label %10

9:                                                ; preds = %5
  store ptr @.str.16, ptr @cert_file, align 8, !tbaa !4
  br label %10

10:                                               ; preds = %9, %5
  %11 = call ptr @test_get_argument(i64 noundef 1)
  store ptr %11, ptr @key_file, align 8, !tbaa !4
  %12 = load ptr, ptr @key_file, align 8, !tbaa !4
  %13 = icmp eq ptr %12, null
  br i1 %13, label %14, label %15

14:                                               ; preds = %10
  store ptr @.str.17, ptr @key_file, align 8, !tbaa !4
  br label %15

15:                                               ; preds = %14, %10
  call void @add_all_tests(ptr noundef @.str.18, ptr noundef @test_script, i32 noundef 3, i32 noundef 1)
  store i32 1, ptr %1, align 4
  br label %16

16:                                               ; preds = %15, %4
  %17 = load i32, ptr %1, align 4
  ret i32 %17
}