; Function Attrs: nounwind uwtable
define dso_local range(i32 0, 2) i32 @setup_tests() local_unnamed_addr #1 {
  %1 = tail call i32 @test_skip_common_options() #12
  %.not = icmp eq i32 %1, 0
  br i1 %.not, label %2, label %3

2:                                                ; preds = %0
  tail call void (ptr, i32, ptr, ...) @test_error(ptr noundef nonnull @.str.14, i32 noundef 47, ptr noundef nonnull @.str.15) #12
  br label %8

3:                                                ; preds = %0
  %4 = tail call ptr @test_get_argument(i64 noundef 0) #12
  %5 = icmp eq ptr %4, null
  %spec.store.select = select i1 %5, ptr @.str.16, ptr %4
  store ptr %spec.store.select, ptr @cert_file, align 8
  %6 = tail call ptr @test_get_argument(i64 noundef 1) #12
  %7 = icmp eq ptr %6, null
  %spec.store.select1 = select i1 %7, ptr @.str.17, ptr %6
  store ptr %spec.store.select1, ptr @key_file, align 8
  tail call void @add_all_tests(ptr noundef nonnull @.str.18, ptr noundef nonnull @test_script, i32 noundef 3, i32 noundef 1) #12
  br label %8

8:                                                ; preds = %3, %2
  %.0 = phi i32 [ 1, %3 ], [ 0, %2 ]
  ret i32 %.0
}